; Function Attrs: nounwind uwtable
define ptr @cl_sign_data_keyfile(ptr noundef readonly captures(none) %0, ptr noundef %1, ptr noundef %2, ptr noundef writeonly captures(none) %3, i32 noundef %4) local_unnamed_addr #1 {
  %6 = tail call noalias ptr @fopen(ptr noundef %0, ptr noundef nonnull @.str.4)
  %.not = icmp eq ptr %6, null
  br i1 %.not, label %12, label %7

7:                                                ; preds = %5
  %8 = tail call ptr @PEM_read_PrivateKey(ptr noundef nonnull %6, ptr noundef null, ptr noundef null, ptr noundef null) #12
  %.not15 = icmp eq ptr %8, null
  %9 = tail call i32 @fclose(ptr noundef nonnull %6)
  br i1 %.not15, label %12, label %10

10:                                               ; preds = %7
  %11 = tail call ptr @cl_sign_data(ptr noundef nonnull %8, ptr noundef %1, ptr noundef %2, ptr noundef %3, i32 noundef %4)
  tail call void @EVP_PKEY_free(ptr noundef nonnull %8) #12
  br label %12

12:                                               ; preds = %7, %5, %10
  %.0 = phi ptr [ %11, %10 ], [ null, %5 ], [ null, %7 ]
  ret ptr %.0
}